; Function Attrs: nounwind uwtable
define internal range(i32 -13, 1) i32 @FV_Validation(ptr noundef captures(none) %0) #0 {
  %2 = getelementptr inbounds nuw i8, ptr %0, i64 72
  %3 = load ptr, ptr %2, align 8, !tbaa !14
  tail call fastcc void @Synchronize_Buffer(ptr noundef %0)
  %4 = load i16, ptr %0, align 8, !tbaa !45
  %5 = and i16 %4, 32
  %.not.i = icmp eq i16 %5, 0
  br i1 %.not.i, label %6, label %10

6:                                                ; preds = %1
  %7 = getelementptr inbounds nuw i8, ptr %3, i64 48
  %8 = load i32, ptr %7, align 8, !tbaa !19
  %9 = and i32 %8, 256
  %.not11.i = icmp eq i32 %9, 0
  br i1 %.not11.i, label %10, label %_nc_Internal_Validation.exit

10:                                               ; preds = %6, %1
  %11 = getelementptr inbounds nuw i8, ptr %3, i64 88
  %12 = load ptr, ptr %11, align 8, !tbaa !63
  %13 = getelementptr inbounds nuw i8, ptr %3, i64 96
  %14 = load ptr, ptr %13, align 8, !tbaa !64
  %15 = tail call fastcc zeroext i1 @Check_Field(ptr noundef %12, ptr noundef %3, ptr noundef %14)
  br i1 %15, label %16, label %_nc_Internal_Validation.exit

16:                                               ; preds = %10
  %17 = load i16, ptr %0, align 8, !tbaa !45
  %18 = and i16 %17, -33
  store i16 %18, ptr %0, align 8, !tbaa !45
  %19 = load i16, ptr %3, align 8, !tbaa !34
  %20 = or i16 %19, 1
  store i16 %20, ptr %3, align 8, !tbaa !34
  %21 = getelementptr inbounds nuw i8, ptr %3, i64 72
  %22 = load ptr, ptr %21, align 8, !tbaa !65
  %.not16.i.i = icmp eq ptr %22, null
  %.not1718.i.i = icmp eq ptr %22, %3
  %or.cond.i = select i1 %.not16.i.i, i1 true, i1 %.not1718.i.i
  br i1 %or.cond.i, label %_nc_Internal_Validation.exit, label %.lr.ph.i.i

.lr.ph.i.i:                                       ; preds = %16, %.lr.ph.i.i
  %.01219.i.i = phi ptr [ %25, %.lr.ph.i.i ], [ %22, %16 ]
  %23 = tail call fastcc i32 @Synchronize_Field(ptr noundef %.01219.i.i)
  %24 = getelementptr inbounds nuw i8, ptr %.01219.i.i, i64 72
  %25 = load ptr, ptr %24, align 8, !tbaa !65
  %.not17.i.i = icmp eq ptr %25, %3
  br i1 %.not17.i.i, label %_nc_Internal_Validation.exit, label %.lr.ph.i.i, !llvm.loop !66

_nc_Internal_Validation.exit:                     ; preds = %.lr.ph.i.i, %16, %6, %10
  %26 = phi i32 [ -13, %10 ], [ 0, %6 ], [ 0, %16 ], [ 0, %.lr.ph.i.i ]
  ret i32 %26
}